; Function Attrs: mustprogress uwtable
define internal fastcc noundef zeroext i1 @_ZL19contains_north_poleP8PJconsts12PJ_DIRECTIONddddb(ptr noundef %0, i32 noundef %1, double noundef %2, double noundef %3, double noundef %4, double noundef %5, i1 noundef zeroext %6) unnamed_addr #1 {
  %8 = alloca double, align 8
  %9 = alloca double, align 8
  store double 9.000000e+01, ptr %8, align 8
  store double 0.000000e+00, ptr %9, align 8
  br i1 %6, label %11, label %10

10:                                               ; preds = %7
  store double 0.000000e+00, ptr %8, align 8
  store double 9.000000e+01, ptr %9, align 8
  br label %11

11:                                               ; preds = %10, %7
  %12 = sub nsw i32 0, %1
  %13 = call i64 @proj_trans_generic(ptr noundef %0, i32 noundef %12, ptr noundef nonnull %9, i64 noundef 8, i64 noundef 1, ptr noundef nonnull %8, i64 noundef 8, i64 noundef 1, ptr noundef null, i64 noundef 8, i64 noundef 0, ptr noundef null, i64 noundef 8, i64 noundef 0)
  %14 = load double, ptr %9, align 8
  %15 = fcmp ogt double %14, %2
  %16 = fcmp olt double %14, %4
  %or.cond = and i1 %15, %16
  br i1 %or.cond, label %17, label %21

17:                                               ; preds = %11
  %18 = load double, ptr %8, align 8
  %19 = fcmp olt double %18, %5
  %20 = fcmp ogt double %18, %3
  %or.cond9 = and i1 %19, %20
  br i1 %or.cond9, label %22, label %21

21:                                               ; preds = %17, %11
  br label %22

22:                                               ; preds = %17, %21
  %.0 = phi i1 [ false, %21 ], [ true, %17 ]
  ret i1 %.0
}